; Function Attrs: mustprogress uwtable
define void @_ZNK4pkpy3Str6substrEii(ptr dead_on_unwind noalias writable sret(%"struct.pkpy::Str") align 8 %0, ptr nocapture noundef nonnull readonly align 8 dereferenceable(32) %1, i32 noundef %2, i32 noundef %3) local_unnamed_addr #3 align 2 {
  %5 = getelementptr inbounds i8, ptr %1, i64 4
  %6 = load i8, ptr %5, align 4
  %7 = trunc i8 %6 to i1
  tail call void @_ZN4pkpy3StrC1Eib(ptr noundef nonnull align 8 dereferenceable(32) %0, i32 noundef %3, i1 noundef zeroext %7)
  %8 = getelementptr inbounds i8, ptr %0, i64 8
  %9 = load ptr, ptr %8, align 8
  %10 = getelementptr inbounds i8, ptr %1, i64 8
  %11 = load ptr, ptr %10, align 8
  %12 = sext i32 %2 to i64
  %13 = getelementptr inbounds i8, ptr %11, i64 %12
  %14 = sext i32 %3 to i64
  tail call void @llvm.memcpy.p0.p0.i64(ptr align 1 %9, ptr align 1 %13, i64 %14, i1 false)
  %15 = load ptr, ptr %8, align 8
  %16 = getelementptr inbounds i8, ptr %15, i64 %14
  store i8 0, ptr %16, align 1
  ret void
}